target datalayout = "e-m:e-p270:32:32-p271:32:32-p272:64:64-i64:64-i128:128-f80:128-n8:16:32:64-S128"
target triple = "x86_64-unknown-linux-gnu"

%"class.EA::UnitTest::Test" = type { ptr, %"class.eastl::basic_string", ptr, i64, i64, ptr, i8, i64 }
%"class.eastl::basic_string" = type { %"class.eastl::compressed_pair" }
%"class.eastl::compressed_pair" = type { %"class.eastl::compressed_pair_imp" }
%"class.eastl::compressed_pair_imp" = type { %"struct.eastl::basic_string<char>::Layout" }
%"struct.eastl::basic_string<char>::Layout" = type { %union.anon }
%union.anon = type { %"struct.eastl::basic_string<char>::HeapLayout" }
%"struct.eastl::basic_string<char>::HeapLayout" = type { ptr, i64, i64 }
%"class.EA::UnitTest::TestFunction" = type { %"class.EA::UnitTest::Test", ptr }

; Function Attrs: mustprogress uwtable
define dso_local noundef i64 @_ZN2EA8UnitTest25GetSystemTimeMicrosecondsEv() #2 {
entry:
  %call = call noundef i64 @_ZN2EA4StdC7GetTimeEv()
  %div = udiv i64 %call, 1000
  ret i64 %div
}

; Function Attrs: mustprogress uwtable
define dso_local noundef i32 @_ZN2EA8UnitTest12TestFunction3RunEv(ptr noundef nonnull align 8 dereferenceable(88) %this) unnamed_addr #2 align 2 {
entry:
  %this.addr = alloca ptr, align 8
  %nTestResult = alloca i32, align 4
  %startTimeInMicroseconds = alloca i64, align 8
  store ptr %this, ptr %this.addr, align 8
  %this1 = load ptr, ptr %this.addr, align 8
  store i32 0, ptr %nTestResult, align 4
  %mpFunction = getelementptr inbounds %"class.EA::UnitTest::TestFunction", ptr %this1, i32 0, i32 1
  %0 = load ptr, ptr %mpFunction, align 8
  %tobool = icmp ne ptr %0, null
  br i1 %tobool, label %if.then, label %if.end8

if.then:                                          ; preds = %entry
  %call = call noundef i64 @_ZN2EA8UnitTest25GetSystemTimeMicrosecondsEv()
  store i64 %call, ptr %startTimeInMicroseconds, align 8
  %mpFunction2 = getelementptr inbounds %"class.EA::UnitTest::TestFunction", ptr %this1, i32 0, i32 1
  %1 = load ptr, ptr %mpFunction2, align 8
  %call3 = call noundef i32 %1()
  store i32 %call3, ptr %nTestResult, align 4
  %2 = load i32, ptr %nTestResult, align 4
  %cmp = icmp ne i32 %2, 0
  br i1 %cmp, label %land.lhs.true, label %if.else

land.lhs.true:                                    ; preds = %if.then
  %3 = load i32, ptr %nTestResult, align 4
  %cmp4 = icmp ne i32 %3, -2147483648
  br i1 %cmp4, label %if.then5, label %if.else

if.then5:                                         ; preds = %land.lhs.true
  %mnErrorCount = getelementptr inbounds %"class.EA::UnitTest::Test", ptr %this1, i32 0, i32 4
  %4 = load i64, ptr %mnErrorCount, align 8
  %inc = add i64 %4, 1
  store i64 %inc, ptr %mnErrorCount, align 8
  br label %if.end

if.else:                                          ; preds = %land.lhs.true, %if.then
  %mnSuccessCount = getelementptr inbounds %"class.EA::UnitTest::Test", ptr %this1, i32 0, i32 3
  %5 = load i64, ptr %mnSuccessCount, align 8
  %inc6 = add i64 %5, 1
  store i64 %inc6, ptr %mnSuccessCount, align 8
  br label %if.end

if.end:                                           ; preds = %if.else, %if.then5
  %call7 = call noundef i64 @_ZN2EA8UnitTest25GetSystemTimeMicrosecondsEv()
  %6 = load i64, ptr %startTimeInMicroseconds, align 8
  %sub = sub i64 %call7, %6
  %mnElapsedTestTimeInMicroseconds = getelementptr inbounds %"class.EA::UnitTest::Test", ptr %this1, i32 0, i32 7
  store i64 %sub, ptr %mnElapsedTestTimeInMicroseconds, align 8
  br label %if.end8

if.end8:                                          ; preds = %if.end, %entry
  %vtable = load ptr, ptr %this1, align 8
  %vfn = getelementptr inbounds ptr, ptr %vtable, i64 7
  %7 = load ptr, ptr %vfn, align 8
  call void %7(ptr noundef nonnull align 8 dereferenceable(80) %this1)
  %8 = load i32, ptr %nTestResult, align 4
  ret i32 %8
}