; Function Attrs: mustprogress uwtable
define dso_local noundef i32 @_ZN2EA8UnitTest12TestFunction3RunEv(ptr noundef nonnull align 8 dereferenceable(88) %this) unnamed_addr #0 align 2 {
entry:
  %mpFunction = getelementptr inbounds i8, ptr %this, i64 80
  %0 = load ptr, ptr %mpFunction, align 8
  %tobool.not = icmp eq ptr %0, null
  br i1 %tobool.not, label %if.end8, label %if.then

if.then:                                          ; preds = %entry
  %call.i = tail call noundef i64 @_ZN2EA4StdC7GetTimeEv()
  %div.i = udiv i64 %call.i, 1000
  %1 = load ptr, ptr %mpFunction, align 8
  %call3 = tail call noundef i32 %1()
  %2 = and i32 %call3, 2147483647
  %or.cond.not = icmp eq i32 %2, 0
  %. = select i1 %or.cond.not, i64 40, i64 48
  %mnSuccessCount = getelementptr inbounds i8, ptr %this, i64 %.
  %3 = load i64, ptr %mnSuccessCount, align 8
  %inc6 = add i64 %3, 1
  store i64 %inc6, ptr %mnSuccessCount, align 8
  %call.i3 = tail call noundef i64 @_ZN2EA4StdC7GetTimeEv()
  %div.i4 = udiv i64 %call.i3, 1000
  %sub = sub nsw i64 %div.i4, %div.i
  %mnElapsedTestTimeInMicroseconds = getelementptr inbounds i8, ptr %this, i64 72
  store i64 %sub, ptr %mnElapsedTestTimeInMicroseconds, align 8
  br label %if.end8

if.end8:                                          ; preds = %if.then, %entry
  %nTestResult.0 = phi i32 [ %call3, %if.then ], [ 0, %entry ]
  %vtable = load ptr, ptr %this, align 8
  %vfn = getelementptr inbounds i8, ptr %vtable, i64 56
  %4 = load ptr, ptr %vfn, align 8
  tail call void %4(ptr noundef nonnull align 8 dereferenceable(80) %this)
  ret i32 %nTestResult.0
}